(lp0
(dp1
S'feedUrl'
p2
S'http://wgntribune-lh.akamaihd.net/i/WGNTribune_1@109089/index_350_av-p.m3u8?sd=10&rebase=on'
p3
sS'feedName'
p4
S'WGNTribune_1'
p5
sS'stationId'
p6
NsS'feedId'
p7
S'109089'
p8
sS'bandwidth'
p9
S'382000'
p10
sS'codecs'
p11
S'avc1.66.30, mp4a.40.2'
p12
sS'resolution'
p13
S'320x180'
p14
sa(dp15
g2
S'http://wgntribune-lh.akamaihd.net/i/WGNTribune_1@109089/index_350_av-b.m3u8?sd=10&rebase=on'
p16
sg4
g5
sg6
Nsg7
g8
sg9
g10
sg11
g12
sg13
g14
sa(dp17
g2
S'http://wgntribune-lh.akamaihd.net/i/WGNTribune_1@109089/index_700_av-p.m3u8?sd=10&rebase=on'
p18
sg4
g5
sg6
Nsg7
g8
sg9
S'764000'
p19
sg11
S'avc1.77.30, mp4a.40.2'
p20
sg13
S'640x360'
p21
sa(dp22
g2
S'http://wgntribune-lh.akamaihd.net/i/WGNTribune_1@109089/index_700_av-b.m3u8?sd=10&rebase=on'
p23
sg4
g5
sg6
Nsg7
g8
sg9
g19
sg11
g20
sg13
g21
sa(dp24
g2
S'http://wgntribune-lh.akamaihd.net/i/WGNTribune_1@109089/index_1900_av-p.m3u8?sd=10&rebase=on'
p25
sg4
g5
sg6
Nsg7
g8
sg9
S'2028000'
p26
sg11
g20
sg13
S'1280x720'
p27
sa(dp28
g2
S'http://wgntribune-lh.akamaihd.net/i/WGNTribune_1@109089/index_1900_av-b.m3u8?sd=10&rebase=on'
p29
sg4
g5
sg6
Nsg7
g8
sg9
g26
sg11
g20
sg13
g27
sa(dp30
g2
S'http://wgntribune-lh.akamaihd.net/i/WGNTribuneBreaking_1@112464/index_350_av-p.m3u8?sd=10&rebase=on'
p31
sg4
S'WGNTribuneBreaking_1'
p32
sg6
Nsg7
S'112464'
p33
sg9
g10
sg11
g12
sg13
g14
sa(dp34
g2
S'http://wgntribune-lh.akamaihd.net/i/WGNTribuneBreaking_1@112464/index_350_av-b.m3u8?sd=10&rebase=on'
p35
sg4
g32
sg6
Nsg7
g33
sg9
g10
sg11
g12
sg13
g14
sa(dp36
g2
S'http://wgntribune-lh.akamaihd.net/i/WGNTribuneBreaking_1@112464/index_700_av-p.m3u8?sd=10&rebase=on'
p37
sg4
g32
sg6
Nsg7
g33
sg9
g19
sg11
g20
sg13
g21
sa(dp38
g2
S'http://wgntribune-lh.akamaihd.net/i/WGNTribuneBreaking_1@112464/index_700_av-b.m3u8?sd=10&rebase=on'
p39
sg4
g32
sg6
Nsg7
g33
sg9
g19
sg11
g20
sg13
g21
sa(dp40
g2
g31
sg4
g32
sg6
Nsg7
g33
sg9
g10
sg11
g12
sg13
g14
sa(dp41
g2
g35
sg4
g32
sg6
Nsg7
g33
sg9
g10
sg11
g12
sg13
g14
sa(dp42
g2
g37
sg4
g32
sg6
Nsg7
g33
sg9
g19
sg11
g20
sg13
g21
sa(dp43
g2
g39
sg4
g32
sg6
Nsg7
g33
sg9
g19
sg11
g20
sg13
g21
sa(dp44
g2
g31
sg4
g32
sg6
Nsg7
g33
sg9
g10
sg11
g12
sg13
g14
sa(dp45
g2
g35
sg4
g32
sg6
Nsg7
g33
sg9
g10
sg11
g12
sg13
g14
sa(dp46
g2
g37
sg4
g32
sg6
Nsg7
g33
sg9
g19
sg11
g20
sg13
g21
sa(dp47
g2
g39
sg4
g32
sg6
Nsg7
g33
sg9
g19
sg11
g20
sg13
g21
sa(dp48
g2
g31
sg4
g32
sg6
Nsg7
g33
sg9
g10
sg11
g12
sg13
g14
sa(dp49
g2
g35
sg4
g32
sg6
Nsg7
g33
sg9
g10
sg11
g12
sg13
g14
sa(dp50
g2
g37
sg4
g32
sg6
Nsg7
g33
sg9
g19
sg11
g20
sg13
g21
sa(dp51
g2
g39
sg4
g32
sg6
Nsg7
g33
sg9
g19
sg11
g20
sg13
g21
sa(dp52
g2
S'http://wxintribune-lh.akamaihd.net/i/WXINTribune_1@120151/index_350_av-p.m3u8?sd=&rebase=on'
p53
sg4
S'WXINTribune_1'
p54
sg6
Nsg7
S'120151'
p55
sg9
g10
sg11
g12
sg13
g14
sa(dp56
g2
S'http://wxintribune-lh.akamaihd.net/i/WXINTribune_1@120151/index_350_av-b.m3u8?sd=&rebase=on'
p57
sg4
g54
sg6
Nsg7
g55
sg9
g10
sg11
g12
sg13
g14
sa(dp58
g2
S'http://wxintribune-lh.akamaihd.net/i/WXINTribune_1@120151/index_700_av-p.m3u8?sd=&rebase=on'
p59
sg4
g54
sg6
Nsg7
g55
sg9
g19
sg11
g20
sg13
g21
sa(dp60
g2
S'http://wxintribune-lh.akamaihd.net/i/WXINTribune_1@120151/index_700_av-b.m3u8?sd=&rebase=on'
p61
sg4
g54
sg6
Nsg7
g55
sg9
g19
sg11
g20
sg13
g21
sa(dp62
g2
S'http://wxintribune-lh.akamaihd.net/i/WXINTribune_Breaking_1@120152/index_350_av-p.m3u8?sd=&rebase=on'
p63
sg4
S'WXINTribune_Breaking_1'
p64
sg6
Nsg7
S'120152'
p65
sg9
g10
sg11
g12
sg13
g14
sa(dp66
g2
S'http://wxintribune-lh.akamaihd.net/i/WXINTribune_Breaking_1@120152/index_350_av-b.m3u8?sd=&rebase=on'
p67
sg4
g64
sg6
Nsg7
g65
sg9
g10
sg11
g12
sg13
g14
sa(dp68
g2
S'http://wxintribune-lh.akamaihd.net/i/WXINTribune_Breaking_1@120152/index_700_av-p.m3u8?sd=&rebase=on'
p69
sg4
g64
sg6
Nsg7
g65
sg9
g19
sg11
g20
sg13
g21
sa(dp70
g2
S'http://wxintribune-lh.akamaihd.net/i/WXINTribune_Breaking_1@120152/index_700_av-b.m3u8?sd=&rebase=on'
p71
sg4
g64
sg6
Nsg7
g65
sg9
g19
sg11
g20
sg13
g21
sa(dp72
g2
S'http://wxmitribune-lh.akamaihd.net/i/WXMITribune_1@121313/index_350_av-p.m3u8?sd=10&rebase=on'
p73
sg4
S'WXMITribune_1'
p74
sg6
Nsg7
S'121313'
p75
sg9
g10
sg11
g12
sg13
g14
sa(dp76
g2
S'http://wxmitribune-lh.akamaihd.net/i/WXMITribune_1@121313/index_350_av-b.m3u8?sd=10&rebase=on'
p77
sg4
g74
sg6
Nsg7
g75
sg9
g10
sg11
g12
sg13
g14
sa(dp78
g2
S'http://wxmitribune-lh.akamaihd.net/i/WXMITribune_1@121313/index_700_av-p.m3u8?sd=10&rebase=on'
p79
sg4
g74
sg6
Nsg7
g75
sg9
g19
sg11
g20
sg13
g21
sa(dp80
g2
S'http://wxmitribune-lh.akamaihd.net/i/WXMITribune_1@121313/index_700_av-b.m3u8?sd=10&rebase=on'
p81
sg4
g74
sg6
Nsg7
g75
sg9
g19
sg11
g20
sg13
g21
sa(dp82
g2
S'http://kswbtribune-lh.akamaihd.net/i/KSWBTribuneBreaking_1@122484/index_350_av-p.m3u8?sd=&rebase=on'
p83
sg4
S'KSWBTribuneBreaking_1'
p84
sg6
Nsg7
S'122484'
p85
sg9
g10
sg11
g12
sg13
g14
sa(dp86
g2
S'http://kswbtribune-lh.akamaihd.net/i/KSWBTribuneBreaking_1@122484/index_350_av-b.m3u8?sd=&rebase=on'
p87
sg4
g84
sg6
Nsg7
g85
sg9
g10
sg11
g12
sg13
g14
sa(dp88
g2
S'http://kswbtribune-lh.akamaihd.net/i/KSWBTribuneBreaking_1@122484/index_700_av-p.m3u8?sd=&rebase=on'
p89
sg4
g84
sg6
Nsg7
g85
sg9
g19
sg11
g20
sg13
g21
sa(dp90
g2
S'http://kswbtribune-lh.akamaihd.net/i/KSWBTribuneBreaking_1@122484/index_700_av-b.m3u8?sd=&rebase=on'
p91
sg4
g84
sg6
Nsg7
g85
sg9
g19
sg11
g20
sg13
g21
sa(dp92
g2
S'http://kcpqtribune-lh.akamaihd.net/i/KCPQTribune_1@130216/index_350_av-p.m3u8?sd=10&rebase=on'
p93
sg4
S'KCPQTribune_1'
p94
sg6
Nsg7
S'130216'
p95
sg9
g10
sg11
g12
sg13
g14
sa(dp96
g2
S'http://kcpqtribune-lh.akamaihd.net/i/KCPQTribune_1@130216/index_350_av-b.m3u8?sd=10&rebase=on'
p97
sg4
g94
sg6
Nsg7
g95
sg9
g10
sg11
g12
sg13
g14
sa(dp98
g2
S'http://kcpqtribune-lh.akamaihd.net/i/KCPQTribune_1@130216/index_700_av-p.m3u8?sd=10&rebase=on'
p99
sg4
g94
sg6
Nsg7
g95
sg9
g19
sg11
g20
sg13
g21
sa(dp100
g2
S'http://kcpqtribune-lh.akamaihd.net/i/KCPQTribune_1@130216/index_700_av-b.m3u8?sd=10&rebase=on'
p101
sg4
g94
sg6
Nsg7
g95
sg9
g19
sg11
g20
sg13
g21
sa(dp102
g2
S'http://kiahtribune-lh.akamaihd.net/i/KIAHTribune_1@130232/index_350_av-p.m3u8?sd=10&rebase=on'
p103
sg4
S'KIAHTribune_1'
p104
sg6
Nsg7
S'130232'
p105
sg9
g10
sg11
g12
sg13
g14
sa(dp106
g2
S'http://kiahtribune-lh.akamaihd.net/i/KIAHTribune_1@130232/index_350_av-b.m3u8?sd=10&rebase=on'
p107
sg4
g104
sg6
Nsg7
g105
sg9
g10
sg11
g12
sg13
g14
sa(dp108
g2
S'http://kiahtribune-lh.akamaihd.net/i/KIAHTribune_1@130232/index_700_av-p.m3u8?sd=10&rebase=on'
p109
sg4
g104
sg6
Nsg7
g105
sg9
g19
sg11
g20
sg13
g21
sa(dp110
g2
S'http://wphltribune-lh.akamaihd.net/i/WPHLTribune_1@130239/index_350_av-p.m3u8?sd=10&rebase=on'
p111
sg4
S'WPHLTribune_1'
p112
sg6
Nsg7
S'130239'
p113
sg9
g10
sg11
g12
sg13
g14
sa(dp114
g2
S'http://wphltribune-lh.akamaihd.net/i/WPHLTribune_1@130239/index_700_av-p.m3u8?sd=10&rebase=on'
p115
sg4
g112
sg6
Nsg7
g113
sg9
g19
sg11
g20
sg13
g21
sa(dp116
g2
S'http://wtictribune-lh.akamaihd.net/i/WTICTribune_1@132987/index_700_av-p.m3u8?sd=&rebase=on'
p117
sg4
S'WTICTribune_1'
p118
sg6
Nsg7
S'132987'
p119
sg9
g19
sg11
g20
sg13
g21
sa(dp120
g2
S'http://wtictribune-lh.akamaihd.net/i/WTICTribune_1@132987/index_700_av-b.m3u8?sd=&rebase=on'
p121
sg4
g118
sg6
Nsg7
g119
sg9
g19
sg11
g20
sg13
g21
sa(dp122
g2
S'http://wtictribune-lh.akamaihd.net/i/WTICTribune_1@132987/index_350_av-b.m3u8?sd=&rebase=on'
p123
sg4
g118
sg6
Nsg7
g119
sg9
g10
sg11
g12
sg13
g14
sa(dp124
g2
S'http://wregtribune-lh.akamaihd.net/i/WREGTribunePrimary_1@192110/index_350_av-b.m3u8?sd=10&rebase=on'
p125
sg4
S'WREGTribunePrimary_1'
p126
sg6
Nsg7
S'192110'
p127
sg9
g10
sg11
g12
sg13
g14
sa(dp128
g2
S'http://wregtribune-lh.akamaihd.net/i/WREGTribunePrimary_1@192110/index_700_av-b.m3u8?sd=10&rebase=on'
p129
sg4
g126
sg6
Nsg7
g127
sg9
g19
sg11
g20
sg13
g21
sa(dp130
g2
S'http://whnttribune-lh.akamaihd.net/i/WHNTTribune_1@198429/index_350_av-p.m3u8?sd=10&rebase=on'
p131
sg4
S'WHNTTribune_1'
p132
sg6
Nsg7
S'198429'
p133
sg9
g10
sg11
g12
sg13
g14
sa(dp134
g2
S'http://whnttribune-lh.akamaihd.net/i/WHNTTribune_1@198429/index_350_av-b.m3u8?sd=10&rebase=on'
p135
sg4
g132
sg6
Nsg7
g133
sg9
g10
sg11
g12
sg13
g14
sa(dp136
g2
S'http://whnttribune-lh.akamaihd.net/i/WHNTTribune_1@198429/index_700_av-p.m3u8?sd=10&rebase=on'
p137
sg4
g132
sg6
Nsg7
g133
sg9
g19
sg11
g20
sg13
g21
sa(dp138
g2
S'http://whnttribune-lh.akamaihd.net/i/WHNTTribune_1@198429/index_700_av-b.m3u8?sd=10&rebase=on'
p139
sg4
g132
sg6
Nsg7
g133
sg9
g19
sg11
g20
sg13
g21
sa(dp140
g2
S'http://whotribune-lh.akamaihd.net/i/WHOTribune_1@198423/index_350_av-p.m3u8?sd=10&rebase=on'
p141
sg4
S'WHOTribune_1'
p142
sg6
Nsg7
S'198423'
p143
sg9
S'374000'
p144
sg11
g12
sg13
g14
sa(dp145
g2
S'http://whotribune-lh.akamaihd.net/i/WHOTribune_1@198423/index_350_av-b.m3u8?sd=10&rebase=on'
p146
sg4
g142
sg6
Nsg7
g143
sg9
g144
sg11
g12
sg13
g14
sa(dp147
g2
S'http://whotribune-lh.akamaihd.net/i/WHOTribune_1@198423/index_700_av-p.m3u8?sd=10&rebase=on'
p148
sg4
g142
sg6
Nsg7
g143
sg9
S'598000'
p149
sg11
g20
sg13
g21
sa(dp150
g2
S'http://whotribune-lh.akamaihd.net/i/WHOTribune_1@198423/index_700_av-b.m3u8?sd=10&rebase=on'
p151
sg4
g142
sg6
Nsg7
g143
sg9
g149
sg11
g20
sg13
g21
sa(dp152
g2
S'http://kfsmtribune-lh.akamaihd.net/i/KFSMTribune_1@198422/index_350_av-p.m3u8?sd=10&rebase=on'
p153
sg4
S'KFSMTribune_1'
p154
sg6
Nsg7
S'198422'
p155
sg9
g10
sg11
g12
sg13
g14
sa(dp156
g2
S'http://kfsmtribune-lh.akamaihd.net/i/KFSMTribune_1@198422/index_350_av-b.m3u8?sd=10&rebase=on'
p157
sg4
g154
sg6
Nsg7
g155
sg9
g10
sg11
g12
sg13
g14
sa(dp158
g2
S'http://kfsmtribune-lh.akamaihd.net/i/KFSMTribune_1@198422/index_700_av-p.m3u8?sd=10&rebase=on'
p159
sg4
g154
sg6
Nsg7
g155
sg9
g19
sg11
g20
sg13
g21
sa(dp160
g2
S'http://kfsmtribune-lh.akamaihd.net/i/KFSMTribune_1@198422/index_700_av-b.m3u8?sd=10&rebase=on'
p161
sg4
g154
sg6
Nsg7
g155
sg9
g19
sg11
g20
sg13
g21
sa(dp162
g2
S'http://wghptribune-lh.akamaihd.net/i/WGHPTribune_1@198430/index_350_av-p.m3u8?sd=10&rebase=on'
p163
sg4
S'WGHPTribune_1'
p164
sg6
Nsg7
S'198430'
p165
sg9
g10
sg11
g12
sg13
g14
sa(dp166
g2
S'http://wghptribune-lh.akamaihd.net/i/WGHPTribune_1@198430/index_350_av-b.m3u8?sd=10&rebase=on'
p167
sg4
g164
sg6
Nsg7
g165
sg9
g10
sg11
g12
sg13
g14
sa(dp168
g2
S'http://wghptribune-lh.akamaihd.net/i/WGHPTribune_1@198430/index_700_av-p.m3u8?sd=10&rebase=on'
p169
sg4
g164
sg6
Nsg7
g165
sg9
g19
sg11
g20
sg13
g21
sa(dp170
g2
S'http://wghptribune-lh.akamaihd.net/i/WGHPTribune_1@198430/index_700_av-b.m3u8?sd=10&rebase=on'
p171
sg4
g164
sg6
Nsg7
g165
sg9
g19
sg11
g20
sg13
g21
sa.